; Function Attrs: mustprogress uwtable
define noundef i32 @_ZNK4GURL7IntPortEv(ptr noundef nonnull align 8 dereferenceable(120) %0) local_unnamed_addr #0 align 2 {
  %2 = getelementptr inbounds nuw i8, ptr %0, i64 76
  %3 = load i32, ptr %2, align 4, !tbaa !53
  %4 = icmp sgt i32 %3, 0
  br i1 %4, label %5, label %9

5:                                                ; preds = %1
  %6 = getelementptr inbounds nuw i8, ptr %0, i64 72
  %7 = load ptr, ptr %0, align 8, !tbaa !28
  %8 = tail call noundef i32 @_ZN3url9ParsePortEPKcRKNS_9ComponentE(ptr noundef %7, ptr noundef nonnull align 4 dereferenceable(8) %6)
  br label %9

9:                                                ; preds = %1, %5
  %.0 = phi i32 [ %8, %5 ], [ -1, %1 ]
  ret i32 %.0
}